; Function Attrs: nounwind uwtable
define ptr @l_Std_Range_forIn_x27_loop___at_Lean_PrettyPrinter_Delaborator_TopDownAnalyze_analyzeAppStagedCore_maybeSetExplicit___spec__5___lambda__3(ptr noundef %0, ptr readnone captures(none) %1, ptr noundef %2, ptr noundef readonly captures(none) %3, ptr noundef %4, ptr noundef %5, ptr noundef %6, ptr noundef %7, ptr noundef %8, ptr noundef %9) local_unnamed_addr #1 {
  %11 = tail call ptr @l_Lean_PrettyPrinter_Delaborator_TopDownAnalyze_annotateBool(ptr noundef %0, ptr noundef %3, ptr noundef %4, ptr noundef %5, ptr noundef %6, ptr noundef %7, ptr noundef %8, ptr noundef %9)
  %.val = load i32, ptr %11, align 4, !tbaa !8
  %12 = icmp eq i32 %.val, 1
  %13 = getelementptr inbounds nuw i8, ptr %11, i64 8
  %14 = load ptr, ptr %13, align 8, !tbaa !11
  br i1 %12, label %15, label %22

15:                                               ; preds = %10
  tail call void @lean_inc_heartbeat() #7
  %16 = tail call noalias ptr @mi_malloc_small(i64 noundef 24) #7
  %17 = icmp eq ptr %16, null
  br i1 %17, label %18, label %lean_alloc_ctor.exit

18:                                               ; preds = %15
  tail call void @lean_internal_panic_out_of_memory() #8
  unreachable

lean_alloc_ctor.exit:                             ; preds = %15
  %19 = getelementptr inbounds nuw i8, ptr %16, i64 4
  store i32 1, ptr %16, align 4, !tbaa !8
  store i32 131096, ptr %19, align 4
  %20 = getelementptr inbounds nuw i8, ptr %16, i64 8
  store ptr %14, ptr %20, align 8, !tbaa !11
  %21 = getelementptr inbounds nuw i8, ptr %16, i64 16
  store ptr %2, ptr %21, align 8, !tbaa !11
  store ptr %16, ptr %13, align 8, !tbaa !11
  br label %62

22:                                               ; preds = %10
  %23 = getelementptr inbounds nuw i8, ptr %11, i64 16
  %24 = load ptr, ptr %23, align 8, !tbaa !11
  %25 = ptrtoint ptr %24 to i64
  %26 = and i64 %25, 1
  %.not = icmp eq i64 %26, 0
  br i1 %.not, label %27, label %lean_inc.exit32

27:                                               ; preds = %22
  %.val.i = load i32, ptr %24, align 4, !tbaa !8
  %28 = icmp sgt i32 %.val.i, 0
  br i1 %28, label %29, label %31, !prof !13

29:                                               ; preds = %27
  %30 = add nuw i32 %.val.i, 1
  store i32 %30, ptr %24, align 4, !tbaa !8
  br label %lean_inc.exit32

31:                                               ; preds = %27
  %.not.i33 = icmp eq i32 %.val.i, 0
  br i1 %.not.i33, label %lean_inc.exit32, label %32

32:                                               ; preds = %31
  tail call void @lean_inc_ref_cold(ptr noundef nonnull %24) #7
  br label %lean_inc.exit32

lean_inc.exit32:                                  ; preds = %32, %31, %29, %22
  %33 = ptrtoint ptr %14 to i64
  %34 = and i64 %33, 1
  %.not39 = icmp eq i64 %34, 0
  br i1 %.not39, label %35, label %lean_inc.exit

35:                                               ; preds = %lean_inc.exit32
  %.val.i34 = load i32, ptr %14, align 4, !tbaa !8
  %36 = icmp sgt i32 %.val.i34, 0
  br i1 %36, label %37, label %39, !prof !13

37:                                               ; preds = %35
  %38 = add nuw i32 %.val.i34, 1
  store i32 %38, ptr %14, align 4, !tbaa !8
  br label %lean_inc.exit

39:                                               ; preds = %35
  %.not.i35 = icmp eq i32 %.val.i34, 0
  br i1 %.not.i35, label %lean_inc.exit, label %40

40:                                               ; preds = %39
  tail call void @lean_inc_ref_cold(ptr noundef nonnull %14) #7
  br label %lean_inc.exit

lean_inc.exit:                                    ; preds = %40, %39, %37, %lean_inc.exit32
  %41 = ptrtoint ptr %11 to i64
  %42 = and i64 %41, 1
  %.not40 = icmp eq i64 %42, 0
  br i1 %.not40, label %43, label %lean_dec.exit

43:                                               ; preds = %lean_inc.exit
  %44 = load i32, ptr %11, align 4, !tbaa !8
  %45 = icmp sgt i32 %44, 1
  br i1 %45, label %46, label %48, !prof !13

46:                                               ; preds = %43
  %47 = add nsw i32 %44, -1
  store i32 %47, ptr %11, align 4, !tbaa !8
  br label %lean_dec.exit

48:                                               ; preds = %43
  %.not.i = icmp eq i32 %44, 0
  br i1 %.not.i, label %lean_dec.exit, label %49

49:                                               ; preds = %48
  tail call void @lean_dec_ref_cold(ptr noundef nonnull %11) #7
  br label %lean_dec.exit

lean_dec.exit:                                    ; preds = %49, %48, %46, %lean_inc.exit
  tail call void @lean_inc_heartbeat() #7
  %50 = tail call noalias ptr @mi_malloc_small(i64 noundef 24) #7
  %51 = icmp eq ptr %50, null
  br i1 %51, label %52, label %lean_alloc_ctor.exit37

52:                                               ; preds = %lean_dec.exit
  tail call void @lean_internal_panic_out_of_memory() #8
  unreachable

lean_alloc_ctor.exit37:                           ; preds = %lean_dec.exit
  %53 = getelementptr inbounds nuw i8, ptr %50, i64 4
  store i32 1, ptr %50, align 4, !tbaa !8
  store i32 131096, ptr %53, align 4
  %54 = getelementptr inbounds nuw i8, ptr %50, i64 8
  store ptr %14, ptr %54, align 8, !tbaa !11
  %55 = getelementptr inbounds nuw i8, ptr %50, i64 16
  store ptr %2, ptr %55, align 8, !tbaa !11
  tail call void @lean_inc_heartbeat() #7
  %56 = tail call noalias ptr @mi_malloc_small(i64 noundef 24) #7
  %57 = icmp eq ptr %56, null
  br i1 %57, label %58, label %lean_alloc_ctor.exit38

58:                                               ; preds = %lean_alloc_ctor.exit37
  tail call void @lean_internal_panic_out_of_memory() #8
  unreachable

lean_alloc_ctor.exit38:                           ; preds = %lean_alloc_ctor.exit37
  %59 = getelementptr inbounds nuw i8, ptr %56, i64 4
  store i32 1, ptr %56, align 4, !tbaa !8
  store i32 131096, ptr %59, align 4
  %60 = getelementptr inbounds nuw i8, ptr %56, i64 8
  store ptr %50, ptr %60, align 8, !tbaa !11
  %61 = getelementptr inbounds nuw i8, ptr %56, i64 16
  store ptr %24, ptr %61, align 8, !tbaa !11
  br label %62

62:                                               ; preds = %lean_alloc_ctor.exit38, %lean_alloc_ctor.exit
  %.0 = phi ptr [ %11, %lean_alloc_ctor.exit ], [ %56, %lean_alloc_ctor.exit38 ]
  ret ptr %.0
}